target datalayout = "e-m:e-p270:32:32-p271:32:32-p272:64:64-i64:64-i128:128-f80:128-n8:16:32:64-S128"
target triple = "x86_64-pc-linux-gnu"

; Function Attrs: mustprogress nounwind uwtable
define hidden noundef i32 @_ZN14VectorCastNode6opcodeEi9BasicTypeb(i32 noundef %0, i8 noundef zeroext %1, i1 noundef zeroext %2) #1 align 2 {
  %4 = alloca i32, align 4
  %5 = alloca i32, align 4
  %6 = alloca i8, align 1
  %7 = alloca i8, align 1
  store i32 %0, ptr %5, align 4
  store i8 %1, ptr %6, align 1
  %8 = zext i1 %2 to i8
  store i8 %8, ptr %7, align 1
  %9 = load i32, ptr %5, align 4
  switch i32 %9, label %12 [
    i32 140, label %10
    i32 139, label %11
  ]

10:                                               ; preds = %3
  store i32 490, ptr %4, align 4
  br label %32

11:                                               ; preds = %3
  store i32 489, ptr %4, align 4
  br label %32

12:                                               ; preds = %3
  br label %13

13:                                               ; preds = %12
  %14 = load i8, ptr %6, align 1
  %15 = zext i8 %14 to i32
  switch i32 %15, label %31 [
    i32 8, label %16
    i32 9, label %20
    i32 10, label %24
    i32 11, label %28
    i32 6, label %29
    i32 7, label %30
  ]

16:                                               ; preds = %13
  %17 = load i8, ptr %7, align 1
  %18 = trunc i8 %17 to i1
  %19 = select i1 %18, i32 483, i32 491
  store i32 %19, ptr %4, align 4
  br label %32

20:                                               ; preds = %13
  %21 = load i8, ptr %7, align 1
  %22 = trunc i8 %21 to i1
  %23 = select i1 %22, i32 484, i32 492
  store i32 %23, ptr %4, align 4
  br label %32

24:                                               ; preds = %13
  %25 = load i8, ptr %7, align 1
  %26 = trunc i8 %25 to i1
  %27 = select i1 %26, i32 485, i32 493
  store i32 %27, ptr %4, align 4
  br label %32

28:                                               ; preds = %13
  store i32 486, ptr %4, align 4
  br label %32

29:                                               ; preds = %13
  store i32 487, ptr %4, align 4
  br label %32

30:                                               ; preds = %13
  store i32 488, ptr %4, align 4
  br label %32

31:                                               ; preds = %13
  store i32 0, ptr %4, align 4
  br label %32

32:                                               ; preds = %31, %30, %29, %28, %24, %20, %16, %11, %10
  %33 = load i32, ptr %4, align 4
  ret i32 %33
}