; Function Attrs: mustprogress nofree norecurse nosync nounwind willreturn memory(none) uwtable
define hidden noundef range(i32 0, 494) i32 @_ZN14VectorCastNode6opcodeEi9BasicTypeb(i32 noundef %0, i8 noundef zeroext %1, i1 noundef zeroext %2) local_unnamed_addr #0 align 2 {
  switch i32 %0, label %5 [
    i32 140, label %15
    i32 139, label %4
  ]

4:                                                ; preds = %3
  br label %15

5:                                                ; preds = %3
  switch i8 %1, label %14 [
    i8 8, label %6
    i8 9, label %8
    i8 10, label %10
    i8 11, label %15
    i8 6, label %12
    i8 7, label %13
  ]

6:                                                ; preds = %5
  %7 = select i1 %2, i32 483, i32 491
  br label %15

8:                                                ; preds = %5
  %9 = select i1 %2, i32 484, i32 492
  br label %15

10:                                               ; preds = %5
  %11 = select i1 %2, i32 485, i32 493
  br label %15

12:                                               ; preds = %5
  br label %15

13:                                               ; preds = %5
  br label %15

14:                                               ; preds = %5
  br label %15

15:                                               ; preds = %5, %3, %14, %13, %12, %10, %8, %6, %4
  %.0 = phi i32 [ 0, %14 ], [ 488, %13 ], [ 487, %12 ], [ %11, %10 ], [ %9, %8 ], [ %7, %6 ], [ 489, %4 ], [ 490, %3 ], [ 486, %5 ]
  ret i32 %.0
}